; Function Attrs: mustprogress uwtable
define hidden void @_ZN2cv9BitStreamC2Ev(ptr noundef nonnull align 8 dereferenceable(569) %0) unnamed_addr #4 align 2 personality ptr @__gxx_personality_v0 {
  tail call void @_ZNSt14basic_ofstreamIcSt11char_traitsIcEEC1Ev(ptr noundef nonnull align 8 dereferenceable(248) %0)
  %2 = getelementptr inbounds nuw i8, ptr %0, i64 512
  tail call void @llvm.memset.p0.i64(ptr noundef nonnull align 8 dereferenceable(24) %2, i8 0, i64 24, i1 false)
  invoke void @_ZNSt6vectorIhSaIhEE6resizeEm(ptr noundef nonnull align 8 dereferenceable(24) %2, i64 noundef 33792)
          to label %3 unwind label %9

3:                                                ; preds = %1
  %4 = load ptr, ptr %2, align 8, !tbaa !121
  %5 = getelementptr inbounds nuw i8, ptr %0, i64 536
  store ptr %4, ptr %5, align 8, !tbaa !123
  %6 = getelementptr inbounds nuw i8, ptr %4, i64 32768
  %7 = getelementptr inbounds nuw i8, ptr %0, i64 544
  store ptr %6, ptr %7, align 8, !tbaa !130
  %8 = getelementptr inbounds nuw i8, ptr %0, i64 552
  tail call void @llvm.memset.p0.i64(ptr noundef nonnull align 8 dereferenceable(17) %8, i8 0, i64 17, i1 false)
  ret void

9:                                                ; preds = %1
  %10 = landingpad { ptr, i32 }
          cleanup
  %11 = load ptr, ptr %2, align 8, !tbaa !121
  %.not.i.i.i = icmp eq ptr %11, null
  br i1 %.not.i.i.i, label %_ZNSt6vectorIhSaIhEED2Ev.exit, label %12

12:                                               ; preds = %9
  tail call void @_ZdlPv(ptr noundef nonnull %11) #27
  br label %_ZNSt6vectorIhSaIhEED2Ev.exit

_ZNSt6vectorIhSaIhEED2Ev.exit:                    ; preds = %9, %12
  tail call void @_ZNSt14basic_ofstreamIcSt11char_traitsIcEED1Ev(ptr noundef nonnull align 8 dereferenceable(248) %0) #28
  resume { ptr, i32 } %10
}